; Function Attrs: nounwind uwtable
define ptr @l_List_foldl___at_Lean_Compiler_LCNF_UnreachableBranches_Value_proj___spec__1(ptr noundef %0, ptr noundef %1, ptr noundef %2) local_unnamed_addr #1 {
  br label %4

4:                                                ; preds = %15, %3
  %.010 = phi ptr [ %2, %3 ], [ %19, %15 ]
  %.0 = phi ptr [ %1, %3 ], [ %21, %15 ]
  %5 = ptrtoint ptr %.010 to i64
  %6 = and i64 %5, 1
  %.not.i = icmp eq i64 %6, 0
  br i1 %.not.i, label %10, label %7

7:                                                ; preds = %4
  %8 = lshr i64 %5, 1
  %9 = trunc i64 %8 to i32
  br label %lean_obj_tag.exit

10:                                               ; preds = %4
  %11 = getelementptr i8, ptr %.010, i64 4
  %.val.i = load i32, ptr %11, align 4
  %12 = lshr i32 %.val.i, 24
  br label %lean_obj_tag.exit

lean_obj_tag.exit:                                ; preds = %7, %10
  %.0.i = phi i32 [ %9, %7 ], [ %12, %10 ]
  %13 = icmp eq i32 %.0.i, 0
  br i1 %13, label %14, label %15

14:                                               ; preds = %lean_obj_tag.exit
  ret ptr %.0

15:                                               ; preds = %lean_obj_tag.exit
  %16 = getelementptr inbounds nuw i8, ptr %.010, i64 8
  %17 = load ptr, ptr %16, align 8, !tbaa !11
  %18 = getelementptr inbounds nuw i8, ptr %.010, i64 16
  %19 = load ptr, ptr %18, align 8, !tbaa !11
  %20 = tail call ptr @l_Lean_Compiler_LCNF_UnreachableBranches_Value_proj(ptr noundef %17, ptr noundef %0)
  %21 = tail call ptr @l_Lean_Compiler_LCNF_UnreachableBranches_Value_merge(ptr noundef %.0, ptr noundef %20)
  br label %4
}